GAS LISTING /tmp/ccJf2hxM.s 			page 1


   1              		.file	"main.cpp"
   2              		.option pic
   3              		.option norelax
   4              		.text
   5              	.Ltext0:
   6              		.section	.rodata.str1.8,"aMS",@progbits,1
   7              		.align	3
   8              	.LC0:
   9 0000 48657265 		.string	"Here"
   9      00
  10              		.text
  11              		.align	2
  12              		.globl	main
  14              	main:
  15              	.LFB14:
  16              		.file 1 "src/main.cpp"
   1:src/main.cpp  **** #include "../lib/console.h"
   2:src/main.cpp  **** #include "../lib/hw.h"
   3:src/main.cpp  **** #include "../h/syscall_c.h"
   4:src/main.cpp  **** #include "../h/print.h"
   5:src/main.cpp  **** #include "../h/kernel.h"
   6:src/main.cpp  **** #include "../h/riscv.h"
   7:src/main.cpp  **** #include "../h/memory_allocator.h"
   8:src/main.cpp  **** 
   9:src/main.cpp  **** 
  10:src/main.cpp  **** void main() {
  17              		.loc 1 10 13
  18              		.cfi_startproc
  19 0000 130101FE 		addi	sp,sp,-32
  20              		.cfi_def_cfa_offset 32
  21 0004 233C1100 		sd	ra,24(sp)
  22 0008 23388100 		sd	s0,16(sp)
  23 000c 23349100 		sd	s1,8(sp)
  24 0010 23302101 		sd	s2,0(sp)
  25              		.cfi_offset 1, -8
  26              		.cfi_offset 8, -16
  27              		.cfi_offset 9, -24
  28              		.cfi_offset 18, -32
  29 0014 13040102 		addi	s0,sp,32
  30              		.cfi_def_cfa 8, 0
  11:src/main.cpp  ****     Kernel::initKernel();
  31              		.loc 1 11 5
  32              		.loc 1 11 23 is_stmt 0
  33 0018 97000000 		call	_ZN6Kernel10initKernelEv@plt
  33      E7800000 
  34              	.LVL0:
  12:src/main.cpp  ****     printString("Here");
  35              		.loc 1 12 5 is_stmt 1
  36              		.loc 1 12 16 is_stmt 0
  37 0020 17050000 		lla	a0,.LC0
  37      13050500 
  38 0028 97000000 		call	_Z11printStringPKc@plt
  38      E7800000 
  39              	.LVL1:
  13:src/main.cpp  ****     int *a = new int[100000000];
  40              		.loc 1 13 5 is_stmt 1
  41              		.loc 1 13 31 is_stmt 0
GAS LISTING /tmp/ccJf2hxM.s 			page 2


  42 0030 3785D717 		li	a0,399998976
  43 0034 13050540 		addi	a0,a0,1024
  44 0038 97000000 		call	_Znam@plt
  44      E7800000 
  45              	.LVL2:
  46 0040 13090500 		mv	s2,a0
  47              	.LVL3:
  14:src/main.cpp  ****     //a[0] = 48; a[1] = 49; a[2] = 50; a[3] = 51; a[4] = 52;
  15:src/main.cpp  ****     for (int i = 0; i < 5; i++)
  48              		.loc 1 15 5 is_stmt 1
  49              	.LBB2:
  50              		.loc 1 15 14 is_stmt 0
  51 0044 93040000 		li	s1,0
  52              	.LVL4:
  53              	.L3:
  54              		.loc 1 15 23 is_stmt 1 discriminator 3
  55 0048 93074000 		li	a5,4
  56 004c 63C09702 		bgt	s1,a5,.L2
  16:src/main.cpp  ****         __putc(a[i]);
  57              		.loc 1 16 9 discriminator 2
  58              		.loc 1 16 19 is_stmt 0 discriminator 2
  59 0050 93972400 		slli	a5,s1,2
  60 0054 B307F900 		add	a5,s2,a5
  61              		.loc 1 16 15 discriminator 2
  62 0058 03C50700 		lbu	a0,0(a5)
  63 005c 97000000 		call	__putc@plt
  63      E7800000 
  64              	.LVL5:
  15:src/main.cpp  ****         __putc(a[i]);
  65              		.loc 1 15 5 is_stmt 1 discriminator 2
  66 0064 9B841400 		addiw	s1,s1,1
  67              	.LVL6:
  68 0068 6FF01FFE 		j	.L3
  69              	.LVL7:
  70              	.L2:
  71              	.LBE2:
  17:src/main.cpp  **** 
  18:src/main.cpp  ****     printString("Here");
  72              		.loc 1 18 5
  73              		.loc 1 18 16 is_stmt 0
  74 006c 17050000 		lla	a0,.LC0
  74      13050500 
  75 0074 97000000 		call	_Z11printStringPKc@plt
  75      E7800000 
  76              	.LVL8:
  19:src/main.cpp  ****     delete[] a;
  77              		.loc 1 19 5 is_stmt 1
  78              		.loc 1 19 15 is_stmt 0
  79 007c 63080900 		beqz	s2,.L4
  80              		.loc 1 19 14 discriminator 1
  81 0080 13050900 		mv	a0,s2
  82 0084 97000000 		call	_ZdaPv@plt
  82      E7800000 
  83              	.LVL9:
  84              	.L4:
  20:src/main.cpp  ****     int *b = (int*) mem_alloc(sizeof (int));
  85              		.loc 1 20 5 is_stmt 1
GAS LISTING /tmp/ccJf2hxM.s 			page 3


  86              		.loc 1 20 30 is_stmt 0
  87 008c 13054000 		li	a0,4
  88 0090 97000000 		call	mem_alloc@plt
  88      E7800000 
  89              	.LVL10:
  90 0098 93040500 		mv	s1,a0
  91              	.LVL11:
  21:src/main.cpp  ****     *b = 48;
  92              		.loc 1 21 5 is_stmt 1
  93              		.loc 1 21 8 is_stmt 0
  94 009c 93070003 		li	a5,48
  95 00a0 2320F500 		sw	a5,0(a0)
  22:src/main.cpp  ****     printString("Here");
  96              		.loc 1 22 5 is_stmt 1
  97              		.loc 1 22 16 is_stmt 0
  98 00a4 17050000 		lla	a0,.LC0
  98      13050500 
  99 00ac 97000000 		call	_Z11printStringPKc@plt
  99      E7800000 
 100              	.LVL12:
  23:src/main.cpp  ****     __putc(*b);
 101              		.loc 1 23 5 is_stmt 1
 102              		.loc 1 23 11 is_stmt 0
 103 00b4 03C50400 		lbu	a0,0(s1)
 104 00b8 97000000 		call	__putc@plt
 104      E7800000 
 105              	.LVL13:
  24:src/main.cpp  ****     mem_free(b);
 106              		.loc 1 24 5 is_stmt 1
 107              		.loc 1 24 13 is_stmt 0
 108 00c0 13850400 		mv	a0,s1
 109 00c4 97000000 		call	mem_free@plt
 109      E7800000 
 110              	.LVL14:
  25:src/main.cpp  **** }...
 111              		.loc 1 25 1
 112 00cc 83308101 		ld	ra,24(sp)
 113              		.cfi_restore 1
 114 00d0 03340101 		ld	s0,16(sp)
 115              		.cfi_restore 8
 116              		.cfi_def_cfa 2, 32
 117 00d4 83348100 		ld	s1,8(sp)
 118              		.cfi_restore 9
 119              	.LVL15:
 120 00d8 03390100 		ld	s2,0(sp)
 121              		.cfi_restore 18
 122              	.LVL16:
 123 00dc 13010102 		addi	sp,sp,32
 124              		.cfi_def_cfa_offset 0
 125 00e0 67800000 		jr	ra
 126              		.cfi_endproc
 127              	.LFE14:
 129              	.Letext0:
 130              		.file 2 "src/../lib/hw.h"
 131              		.file 3 "src/../h/kernel.h"
 132              		.file 4 "src/../h/syscall_c.h"
 133              		.file 5 "src/../lib/console.h"
GAS LISTING /tmp/ccJf2hxM.s 			page 4


 134              		.file 6 "src/../h/print.h"
GAS LISTING /tmp/ccJf2hxM.s 			page 5


DEFINED SYMBOLS
                            *ABS*:0000000000000000 main.cpp
     /tmp/ccJf2hxM.s:14     .text:0000000000000000 main
     /tmp/ccJf2hxM.s:18     .text:0000000000000000 .L0 
     /tmp/ccJf2hxM.s:19     .text:0000000000000000 .L0 
     /tmp/ccJf2hxM.s:20     .text:0000000000000004 .L0 
     /tmp/ccJf2hxM.s:25     .text:0000000000000014 .L0 
     /tmp/ccJf2hxM.s:26     .text:0000000000000014 .L0 
     /tmp/ccJf2hxM.s:27     .text:0000000000000014 .L0 
     /tmp/ccJf2hxM.s:28     .text:0000000000000014 .L0 
     /tmp/ccJf2hxM.s:30     .text:0000000000000018 .L0 
     /tmp/ccJf2hxM.s:32     .text:0000000000000018 .L0 
     /tmp/ccJf2hxM.s:33     .text:0000000000000018 .L0 
     /tmp/ccJf2hxM.s:36     .text:0000000000000020 .L0 
     /tmp/ccJf2hxM.s:37     .text:0000000000000020 .L0 
     /tmp/ccJf2hxM.s:41     .text:0000000000000030 .L0 
     /tmp/ccJf2hxM.s:42     .text:0000000000000030 .L0 
     /tmp/ccJf2hxM.s:50     .text:0000000000000044 .L0 
     /tmp/ccJf2hxM.s:51     .text:0000000000000044 .L0 
     /tmp/ccJf2hxM.s:55     .text:0000000000000048 .L0 
     /tmp/ccJf2hxM.s:58     .text:0000000000000050 .L0 
     /tmp/ccJf2hxM.s:59     .text:0000000000000050 .L0 
     /tmp/ccJf2hxM.s:62     .text:0000000000000058 .L0 
     /tmp/ccJf2hxM.s:66     .text:0000000000000064 .L0 
     /tmp/ccJf2hxM.s:73     .text:000000000000006c .L0 
     /tmp/ccJf2hxM.s:74     .text:000000000000006c .L0 
     /tmp/ccJf2hxM.s:78     .text:000000000000007c .L0 
     /tmp/ccJf2hxM.s:79     .text:000000000000007c .L0 
     /tmp/ccJf2hxM.s:81     .text:0000000000000080 .L0 
     /tmp/ccJf2hxM.s:86     .text:000000000000008c .L0 
     /tmp/ccJf2hxM.s:87     .text:000000000000008c .L0 
     /tmp/ccJf2hxM.s:93     .text:000000000000009c .L0 
     /tmp/ccJf2hxM.s:94     .text:000000000000009c .L0 
     /tmp/ccJf2hxM.s:97     .text:00000000000000a4 .L0 
     /tmp/ccJf2hxM.s:98     .text:00000000000000a4 .L0 
     /tmp/ccJf2hxM.s:102    .text:00000000000000b4 .L0 
     /tmp/ccJf2hxM.s:103    .text:00000000000000b4 .L0 
     /tmp/ccJf2hxM.s:107    .text:00000000000000c0 .L0 
     /tmp/ccJf2hxM.s:108    .text:00000000000000c0 .L0 
     /tmp/ccJf2hxM.s:112    .text:00000000000000cc .L0 
     /tmp/ccJf2hxM.s:113    .text:00000000000000d0 .L0 
     /tmp/ccJf2hxM.s:115    .text:00000000000000d4 .L0 
     /tmp/ccJf2hxM.s:116    .text:00000000000000d4 .L0 
     /tmp/ccJf2hxM.s:118    .text:00000000000000d8 .L0 
     /tmp/ccJf2hxM.s:121    .text:00000000000000dc .L0 
     /tmp/ccJf2hxM.s:124    .text:00000000000000e0 .L0 
     /tmp/ccJf2hxM.s:126    .text:00000000000000e4 .L0 
     /tmp/ccJf2hxM.s:135    .text:00000000000000e4 .L0 
     /tmp/ccJf2hxM.s:8      .rodata.str1.8:0000000000000000 .LC0
     /tmp/ccJf2hxM.s:37     .text:0000000000000020 .L0 
     /tmp/ccJf2hxM.s:74     .text:000000000000006c .L0 
     /tmp/ccJf2hxM.s:98     .text:00000000000000a4 .L0 
     /tmp/ccJf2hxM.s:70     .text:000000000000006c .L2
     /tmp/ccJf2hxM.s:53     .text:0000000000000048 .L3
     /tmp/ccJf2hxM.s:84     .text:000000000000008c .L4
     /tmp/ccJf2hxM.s:460    .debug_abbrev:0000000000000000 .Ldebug_abbrev0
     /tmp/ccJf2hxM.s:908    .debug_str:0000000000000214 .LASF34
GAS LISTING /tmp/ccJf2hxM.s 			page 6


     /tmp/ccJf2hxM.s:862    .debug_str:000000000000009d .LASF35
     /tmp/ccJf2hxM.s:878    .debug_str:0000000000000133 .LASF36
     /tmp/ccJf2hxM.s:5      .text:0000000000000000 .Ltext0
     /tmp/ccJf2hxM.s:129    .text:00000000000000e4 .Letext0
     /tmp/ccJf2hxM.s:838    .debug_line:0000000000000000 .Ldebug_line0
     /tmp/ccJf2hxM.s:874    .debug_str:0000000000000113 .LASF0
     /tmp/ccJf2hxM.s:876    .debug_str:0000000000000120 .LASF1
     /tmp/ccJf2hxM.s:870    .debug_str:00000000000000f2 .LASF2
     /tmp/ccJf2hxM.s:858    .debug_str:000000000000008a .LASF4
     /tmp/ccJf2hxM.s:892    .debug_str:00000000000001a0 .LASF3
     /tmp/ccJf2hxM.s:844    .debug_str:000000000000002d .LASF5
     /tmp/ccJf2hxM.s:880    .debug_str:0000000000000153 .LASF6
     /tmp/ccJf2hxM.s:872    .debug_str:0000000000000100 .LASF7
     /tmp/ccJf2hxM.s:906    .debug_str:0000000000000204 .LASF8
     /tmp/ccJf2hxM.s:856    .debug_str:000000000000007c .LASF9
     /tmp/ccJf2hxM.s:884    .debug_str:000000000000016b .LASF10
     /tmp/ccJf2hxM.s:904    .debug_str:00000000000001f5 .LASF11
     /tmp/ccJf2hxM.s:846    .debug_str:0000000000000034 .LASF12
     /tmp/ccJf2hxM.s:840    .debug_str:0000000000000000 .LASF13
     /tmp/ccJf2hxM.s:848    .debug_str:0000000000000044 .LASF14
     /tmp/ccJf2hxM.s:888    .debug_str:0000000000000183 .LASF15
     /tmp/ccJf2hxM.s:850    .debug_str:0000000000000050 .LASF16
     /tmp/ccJf2hxM.s:910    .debug_str:00000000000002b6 .LASF37
     /tmp/ccJf2hxM.s:868    .debug_str:00000000000000e7 .LASF17
     /tmp/ccJf2hxM.s:866    .debug_str:00000000000000ce .LASF19
     /tmp/ccJf2hxM.s:898    .debug_str:00000000000001cc .LASF18
     /tmp/ccJf2hxM.s:842    .debug_str:0000000000000010 .LASF20
     /tmp/ccJf2hxM.s:916    .debug_str:00000000000002ee .LASF21
     /tmp/ccJf2hxM.s:864    .debug_str:00000000000000aa .LASF23
     /tmp/ccJf2hxM.s:894    .debug_str:00000000000001b2 .LASF22
     /tmp/ccJf2hxM.s:912    .debug_str:00000000000002bd .LASF24
     /tmp/ccJf2hxM.s:882    .debug_str:0000000000000166 .LASF38
     /tmp/ccJf2hxM.s:15     .text:0000000000000000 .LFB14
     /tmp/ccJf2hxM.s:127    .text:00000000000000e4 .LFE14
     /tmp/ccJf2hxM.s:791    .debug_loc:0000000000000000 .LLST0
     /tmp/ccJf2hxM.s:802    .debug_loc:0000000000000036 .LLST1
     /tmp/ccJf2hxM.s:49     .text:0000000000000044 .LBB2
     /tmp/ccJf2hxM.s:71     .text:000000000000006c .LBE2
     /tmp/ccJf2hxM.s:809    .debug_loc:0000000000000059 .LLST2
     /tmp/ccJf2hxM.s:64     .text:0000000000000064 .LVL5
     /tmp/ccJf2hxM.s:34     .text:0000000000000020 .LVL0
     /tmp/ccJf2hxM.s:39     .text:0000000000000030 .LVL1
     /tmp/ccJf2hxM.s:45     .text:0000000000000040 .LVL2
     /tmp/ccJf2hxM.s:76     .text:000000000000007c .LVL8
     /tmp/ccJf2hxM.s:83     .text:000000000000008c .LVL9
     /tmp/ccJf2hxM.s:89     .text:0000000000000098 .LVL10
     /tmp/ccJf2hxM.s:100    .text:00000000000000b4 .LVL12
     /tmp/ccJf2hxM.s:105    .text:00000000000000c0 .LVL13
     /tmp/ccJf2hxM.s:110    .text:00000000000000cc .LVL14
     /tmp/ccJf2hxM.s:902    .debug_str:00000000000001ee .LASF25
     /tmp/ccJf2hxM.s:914    .debug_str:00000000000002db .LASF26
     /tmp/ccJf2hxM.s:860    .debug_str:0000000000000091 .LASF27
     /tmp/ccJf2hxM.s:852    .debug_str:0000000000000066 .LASF28
     /tmp/ccJf2hxM.s:854    .debug_str:000000000000006c .LASF30
     /tmp/ccJf2hxM.s:890    .debug_str:0000000000000199 .LASF29
     /tmp/ccJf2hxM.s:900    .debug_str:00000000000001db .LASF31
     /tmp/ccJf2hxM.s:896    .debug_str:00000000000001c2 .LASF32
GAS LISTING /tmp/ccJf2hxM.s 			page 7


     /tmp/ccJf2hxM.s:886    .debug_str:000000000000017a .LASF33
     /tmp/ccJf2hxM.s:47     .text:0000000000000044 .LVL3
     /tmp/ccJf2hxM.s:52     .text:0000000000000048 .LVL4
     /tmp/ccJf2hxM.s:122    .text:00000000000000dc .LVL16
     /tmp/ccJf2hxM.s:91     .text:000000000000009c .LVL11
     /tmp/ccJf2hxM.s:119    .text:00000000000000d8 .LVL15
     /tmp/ccJf2hxM.s:67     .text:0000000000000068 .LVL6
     /tmp/ccJf2hxM.s:69     .text:000000000000006c .LVL7
     /tmp/ccJf2hxM.s:136    .debug_info:0000000000000000 .Ldebug_info0

UNDEFINED SYMBOLS
_ZN6Kernel10initKernelEv
_Z11printStringPKc
_Znam
__putc
_ZdaPv
mem_alloc
mem_free
