GAS LISTING /tmp/cc6roYJ4.s 			page 1


   1              		.file	"main.cpp"
   2              		.option pic
   3              		.option norelax
   4              		.text
   5              	.Ltext0:
   6              		.align	2
   7              		.globl	main
   9              	main:
  10              	.LFB14:
  11              		.file 1 "src/main.cpp"
   1:src/main.cpp  **** #include "../lib/console.h"
   2:src/main.cpp  **** #include "../lib/hw.h"
   3:src/main.cpp  **** #include "../h/syscall_c.h"
   4:src/main.cpp  **** #include "../h/print.h"
   5:src/main.cpp  **** #include "../h/kernel.h"
   6:src/main.cpp  **** #include "../h/riscv.h"
   7:src/main.cpp  **** #include "../h/memory_allocator.h"
   8:src/main.cpp  **** 
   9:src/main.cpp  **** 
  10:src/main.cpp  **** void main() {
  12              		.loc 1 10 13
  13              		.cfi_startproc
  14 0000 130101FE 		addi	sp,sp,-32
  15              		.cfi_def_cfa_offset 32
  16 0004 233C1100 		sd	ra,24(sp)
  17 0008 23388100 		sd	s0,16(sp)
  18 000c 23349100 		sd	s1,8(sp)
  19              		.cfi_offset 1, -8
  20              		.cfi_offset 8, -16
  21              		.cfi_offset 9, -24
  22 0010 13040102 		addi	s0,sp,32
  23              		.cfi_def_cfa 8, 0
  11:src/main.cpp  ****     Kernel::initKernel();
  24              		.loc 1 11 5
  25              		.loc 1 11 23 is_stmt 0
  26 0014 97000000 		call	_ZN6Kernel10initKernelEv@plt
  26      E7800000 
  27              	.LVL0:
  12:src/main.cpp  ****     //int* i = /*(int*) mem_alloc(sizeof(int));*/ (int*)((uint64)HEAP_START_ADDR + 1);
  13:src/main.cpp  ****     //int* i = (int*)MemoryAllocator::allocate(sizeof(int));
  14:src/main.cpp  ****     int* i = (int*) mem_alloc(sizeof(int));
  28              		.loc 1 14 5 is_stmt 1
  29              		.loc 1 14 30 is_stmt 0
  30 001c 13054000 		li	a0,4
  31 0020 97000000 		call	mem_alloc@plt
  31      E7800000 
  32              	.LVL1:
  33 0028 93040500 		mv	s1,a0
  34              	.LVL2:
  15:src/main.cpp  ****     *i = 48;
  35              		.loc 1 15 5 is_stmt 1
  36              		.loc 1 15 8 is_stmt 0
  37 002c 93070003 		li	a5,48
  38 0030 2320F500 		sw	a5,0(a0)
  16:src/main.cpp  ****     __putc(*i);
  39              		.loc 1 16 5 is_stmt 1
  40              		.loc 1 16 11 is_stmt 0
GAS LISTING /tmp/cc6roYJ4.s 			page 2


  41 0034 13050003 		li	a0,48
  42 0038 97000000 		call	__putc@plt
  42      E7800000 
  43              	.LVL3:
  17:src/main.cpp  ****     mem_free(i);
  44              		.loc 1 17 5 is_stmt 1
  45              		.loc 1 17 13 is_stmt 0
  46 0040 13850400 		mv	a0,s1
  47 0044 97000000 		call	mem_free@plt
  47      E7800000 
  48              	.LVL4:
  18:src/main.cpp  **** }...
  49              		.loc 1 18 1
  50 004c 83308101 		ld	ra,24(sp)
  51              		.cfi_restore 1
  52 0050 03340101 		ld	s0,16(sp)
  53              		.cfi_restore 8
  54              		.cfi_def_cfa 2, 32
  55 0054 83348100 		ld	s1,8(sp)
  56              		.cfi_restore 9
  57              	.LVL5:
  58 0058 13010102 		addi	sp,sp,32
  59              		.cfi_def_cfa_offset 0
  60 005c 67800000 		jr	ra
  61              		.cfi_endproc
  62              	.LFE14:
  64              	.Letext0:
  65              		.file 2 "src/../lib/hw.h"
  66              		.file 3 "src/../h/kernel.h"
  67              		.file 4 "src/../h/syscall_c.h"
  68              		.file 5 "src/../lib/console.h"
GAS LISTING /tmp/cc6roYJ4.s 			page 3


DEFINED SYMBOLS
                            *ABS*:0000000000000000 main.cpp
     /tmp/cc6roYJ4.s:9      .text:0000000000000000 main
     /tmp/cc6roYJ4.s:13     .text:0000000000000000 .L0 
     /tmp/cc6roYJ4.s:14     .text:0000000000000000 .L0 
     /tmp/cc6roYJ4.s:15     .text:0000000000000004 .L0 
     /tmp/cc6roYJ4.s:19     .text:0000000000000010 .L0 
     /tmp/cc6roYJ4.s:20     .text:0000000000000010 .L0 
     /tmp/cc6roYJ4.s:21     .text:0000000000000010 .L0 
     /tmp/cc6roYJ4.s:23     .text:0000000000000014 .L0 
     /tmp/cc6roYJ4.s:25     .text:0000000000000014 .L0 
     /tmp/cc6roYJ4.s:26     .text:0000000000000014 .L0 
     /tmp/cc6roYJ4.s:29     .text:000000000000001c .L0 
     /tmp/cc6roYJ4.s:30     .text:000000000000001c .L0 
     /tmp/cc6roYJ4.s:36     .text:000000000000002c .L0 
     /tmp/cc6roYJ4.s:37     .text:000000000000002c .L0 
     /tmp/cc6roYJ4.s:40     .text:0000000000000034 .L0 
     /tmp/cc6roYJ4.s:41     .text:0000000000000034 .L0 
     /tmp/cc6roYJ4.s:45     .text:0000000000000040 .L0 
     /tmp/cc6roYJ4.s:46     .text:0000000000000040 .L0 
     /tmp/cc6roYJ4.s:50     .text:000000000000004c .L0 
     /tmp/cc6roYJ4.s:51     .text:0000000000000050 .L0 
     /tmp/cc6roYJ4.s:53     .text:0000000000000054 .L0 
     /tmp/cc6roYJ4.s:54     .text:0000000000000054 .L0 
     /tmp/cc6roYJ4.s:56     .text:0000000000000058 .L0 
     /tmp/cc6roYJ4.s:59     .text:000000000000005c .L0 
     /tmp/cc6roYJ4.s:61     .text:0000000000000060 .L0 
     /tmp/cc6roYJ4.s:69     .text:0000000000000060 .L0 
     /tmp/cc6roYJ4.s:313    .debug_abbrev:0000000000000000 .Ldebug_abbrev0
     /tmp/cc6roYJ4.s:700    .debug_str:00000000000001d8 .LASF28
     /tmp/cc6roYJ4.s:658    .debug_str:000000000000007b .LASF29
     /tmp/cc6roYJ4.s:674    .debug_str:0000000000000111 .LASF30
     /tmp/cc6roYJ4.s:5      .text:0000000000000000 .Ltext0
     /tmp/cc6roYJ4.s:64     .text:0000000000000060 .Letext0
     /tmp/cc6roYJ4.s:640    .debug_line:0000000000000000 .Ldebug_line0
     /tmp/cc6roYJ4.s:670    .debug_str:00000000000000f1 .LASF0
     /tmp/cc6roYJ4.s:672    .debug_str:00000000000000fe .LASF1
     /tmp/cc6roYJ4.s:666    .debug_str:00000000000000d0 .LASF2
     /tmp/cc6roYJ4.s:656    .debug_str:0000000000000074 .LASF4
     /tmp/cc6roYJ4.s:686    .debug_str:0000000000000177 .LASF3
     /tmp/cc6roYJ4.s:646    .debug_str:000000000000002d .LASF5
     /tmp/cc6roYJ4.s:676    .debug_str:0000000000000131 .LASF6
     /tmp/cc6roYJ4.s:668    .debug_str:00000000000000de .LASF7
     /tmp/cc6roYJ4.s:698    .debug_str:00000000000001c8 .LASF8
     /tmp/cc6roYJ4.s:654    .debug_str:0000000000000066 .LASF9
     /tmp/cc6roYJ4.s:680    .debug_str:0000000000000149 .LASF10
     /tmp/cc6roYJ4.s:696    .debug_str:00000000000001b9 .LASF11
     /tmp/cc6roYJ4.s:648    .debug_str:0000000000000034 .LASF12
     /tmp/cc6roYJ4.s:642    .debug_str:0000000000000000 .LASF13
     /tmp/cc6roYJ4.s:650    .debug_str:0000000000000044 .LASF14
     /tmp/cc6roYJ4.s:684    .debug_str:0000000000000161 .LASF15
     /tmp/cc6roYJ4.s:652    .debug_str:0000000000000050 .LASF16
     /tmp/cc6roYJ4.s:702    .debug_str:000000000000027a .LASF31
     /tmp/cc6roYJ4.s:664    .debug_str:00000000000000c5 .LASF17
     /tmp/cc6roYJ4.s:662    .debug_str:00000000000000ac .LASF19
     /tmp/cc6roYJ4.s:692    .debug_str:00000000000001a3 .LASF18
     /tmp/cc6roYJ4.s:644    .debug_str:0000000000000010 .LASF20
GAS LISTING /tmp/cc6roYJ4.s 			page 4


     /tmp/cc6roYJ4.s:706    .debug_str:000000000000029f .LASF21
     /tmp/cc6roYJ4.s:660    .debug_str:0000000000000088 .LASF23
     /tmp/cc6roYJ4.s:688    .debug_str:0000000000000189 .LASF22
     /tmp/cc6roYJ4.s:704    .debug_str:0000000000000281 .LASF24
     /tmp/cc6roYJ4.s:678    .debug_str:0000000000000144 .LASF32
     /tmp/cc6roYJ4.s:10     .text:0000000000000000 .LFB14
     /tmp/cc6roYJ4.s:62     .text:0000000000000060 .LFE14
     /tmp/cc6roYJ4.s:620    .debug_loc:0000000000000000 .LLST0
     /tmp/cc6roYJ4.s:27     .text:000000000000001c .LVL0
     /tmp/cc6roYJ4.s:32     .text:0000000000000028 .LVL1
     /tmp/cc6roYJ4.s:43     .text:0000000000000040 .LVL3
     /tmp/cc6roYJ4.s:48     .text:000000000000004c .LVL4
     /tmp/cc6roYJ4.s:690    .debug_str:0000000000000199 .LASF25
     /tmp/cc6roYJ4.s:694    .debug_str:00000000000001b2 .LASF26
     /tmp/cc6roYJ4.s:682    .debug_str:0000000000000158 .LASF27
     /tmp/cc6roYJ4.s:34     .text:000000000000002c .LVL2
     /tmp/cc6roYJ4.s:57     .text:0000000000000058 .LVL5
     /tmp/cc6roYJ4.s:70     .debug_info:0000000000000000 .Ldebug_info0

UNDEFINED SYMBOLS
_ZN6Kernel10initKernelEv
mem_alloc
__putc
mem_free
